target datalayout = "e-m:e-p270:32:32-p271:32:32-p272:64:64-i64:64-i128:128-f80:128-n8:16:32:64-S128"
target triple = "x86_64-pc-linux-gnu"

%"struct.user_space::Point2D" = type { double, double }

; Function Attrs: mustprogress nounwind uwtable
define hidden { double, double } @_ZN10user_space6negateERKNS_7Point2DE(ptr noundef nonnull align 8 dereferenceable(16) %0) #5 {
  %2 = alloca %"struct.user_space::Point2D", align 8
  %3 = alloca ptr, align 8
  store ptr %0, ptr %3, align 8, !tbaa !82
  %4 = getelementptr inbounds nuw %"struct.user_space::Point2D", ptr %2, i32 0, i32 0
  %5 = load ptr, ptr %3, align 8, !tbaa !82
  %6 = getelementptr inbounds nuw %"struct.user_space::Point2D", ptr %5, i32 0, i32 0
  %7 = load double, ptr %6, align 8, !tbaa !84
  %8 = fneg double %7
  store double %8, ptr %4, align 8, !tbaa !84
  %9 = getelementptr inbounds nuw %"struct.user_space::Point2D", ptr %2, i32 0, i32 1
  %10 = load ptr, ptr %3, align 8, !tbaa !82
  %11 = getelementptr inbounds nuw %"struct.user_space::Point2D", ptr %10, i32 0, i32 1
  %12 = load double, ptr %11, align 8, !tbaa !87
  %13 = fneg double %12
  store double %13, ptr %9, align 8, !tbaa !87
  %14 = load { double, double }, ptr %2, align 8
  ret { double, double } %14
}