; Function Attrs: mustprogress nofree norecurse nosync nounwind willreturn memory(argmem: read) uwtable
define hidden { double, double } @_ZN10user_space6negateERKNS_7Point2DE(ptr noundef nonnull readonly align 8 captures(none) dereferenceable(16) %0) #8 {
  %2 = load double, ptr %0, align 8, !tbaa !80
  %3 = fneg double %2
  %4 = getelementptr inbounds nuw i8, ptr %0, i64 8
  %5 = load double, ptr %4, align 8, !tbaa !83
  %6 = fneg double %5
  %.fca.0.insert = insertvalue { double, double } poison, double %3, 0
  %.fca.1.insert = insertvalue { double, double } %.fca.0.insert, double %6, 1
  ret { double, double } %.fca.1.insert
}